target datalayout = "e-m:e-p270:32:32-p271:32:32-p272:64:64-i64:64-i128:128-f80:128-n8:16:32:64-S128"
target triple = "x86_64-unknown-linux-gnu"

%"class.icu_75::UnhandledEngine" = type { %"class.icu_75::LanguageBreakEngine", ptr }
%"class.icu_75::LanguageBreakEngine" = type { %"class.icu_75::UObject" }
%"class.icu_75::UObject" = type { ptr }

; Function Attrs: mustprogress uwtable
define noundef signext i8 @_ZNK6icu_7515UnhandledEngine7handlesEiPKc(ptr noundef nonnull align 8 dereferenceable(16) %this, i32 noundef %c, ptr noundef %locale) unnamed_addr #1 align 2 {
entry:
  %this.addr = alloca ptr, align 8
  %c.addr = alloca i32, align 4
  %locale.addr = alloca ptr, align 8
  store ptr %this, ptr %this.addr, align 8
  store i32 %c, ptr %c.addr, align 4
  store ptr %locale, ptr %locale.addr, align 8
  %this1 = load ptr, ptr %this.addr, align 8
  %fHandled = getelementptr inbounds %"class.icu_75::UnhandledEngine", ptr %this1, i32 0, i32 1
  %0 = load ptr, ptr %fHandled, align 8
  %tobool = icmp ne ptr %0, null
  br i1 %tobool, label %land.rhs, label %land.end

land.rhs:                                         ; preds = %entry
  %fHandled2 = getelementptr inbounds %"class.icu_75::UnhandledEngine", ptr %this1, i32 0, i32 1
  %1 = load ptr, ptr %fHandled2, align 8
  %2 = load i32, ptr %c.addr, align 4
  %call = call noundef signext i8 @_ZNK6icu_7510UnicodeSet8containsEi(ptr noundef nonnull align 8 dereferenceable(200) %1, i32 noundef %2)
  %tobool3 = icmp ne i8 %call, 0
  br label %land.end

land.end:                                         ; preds = %land.rhs, %entry
  %3 = phi i1 [ false, %entry ], [ %tobool3, %land.rhs ]
  %conv = zext i1 %3 to i8
  ret i8 %conv
}