; Function Attrs: mustprogress uwtable
define noundef signext i8 @_ZNK6icu_7515UnhandledEngine7handlesEiPKc(ptr nocapture noundef nonnull readonly align 8 dereferenceable(16) %this, i32 noundef %c, ptr nocapture readnone %locale) unnamed_addr #1 align 2 {
entry:
  %fHandled = getelementptr inbounds i8, ptr %this, i64 8
  %0 = load ptr, ptr %fHandled, align 8
  %tobool.not = icmp eq ptr %0, null
  br i1 %tobool.not, label %land.end, label %land.rhs

land.rhs:                                         ; preds = %entry
  %call = tail call noundef signext i8 @_ZNK6icu_7510UnicodeSet8containsEi(ptr noundef nonnull align 8 dereferenceable(200) %0, i32 noundef %c)
  %tobool3 = icmp ne i8 %call, 0
  %1 = zext i1 %tobool3 to i8
  br label %land.end

land.end:                                         ; preds = %land.rhs, %entry
  %conv = phi i8 [ 0, %entry ], [ %1, %land.rhs ]
  ret i8 %conv
}